; Function Attrs: nofree norecurse nosync nounwind memory(read, argmem: readwrite, inaccessiblemem: none) uwtable
define range(i64 1, 0) i64 @HUFv05_decompress1X2_usingDTable(ptr noundef %0, i64 noundef %1, ptr noundef %2, i64 noundef %3, ptr noundef readonly captures(none) %4) local_unnamed_addr #12 {
  %6 = alloca %struct.BITv05_DStream_t, align 8
  %7 = getelementptr inbounds nuw i8, ptr %0, i64 %1
  %8 = load i16, ptr %4, align 2, !tbaa !3
  %9 = zext i16 %8 to i32
  %10 = getelementptr inbounds nuw i8, ptr %4, i64 2
  call void @llvm.lifetime.start.p0(i64 32, ptr nonnull %6) #27
  %.not = icmp ugt i64 %1, %3
  br i1 %.not, label %11, label %BITv05_initDStream.exit.thread

11:                                               ; preds = %5
  %12 = icmp eq i64 %3, 0
  br i1 %12, label %BITv05_initDStream.exit.thread, label %13

13:                                               ; preds = %11
  %14 = icmp ugt i64 %3, 7
  %15 = getelementptr inbounds nuw i8, ptr %6, i64 24
  store ptr %2, ptr %15, align 8, !tbaa !36
  br i1 %14, label %16, label %21

16:                                               ; preds = %13
  %17 = getelementptr inbounds nuw i8, ptr %2, i64 %3
  %18 = getelementptr inbounds i8, ptr %17, i64 -8
  %19 = getelementptr inbounds nuw i8, ptr %6, i64 16
  store ptr %18, ptr %19, align 8, !tbaa !40
  %.val.i = load i64, ptr %18, align 1
  store i64 %.val.i, ptr %6, align 8, !tbaa !41
  %20 = icmp ult i64 %.val.i, 72057594037927936
  br i1 %20, label %BITv05_initDStream.exit.thread, label %BITv05_initDStream.exit

21:                                               ; preds = %13
  %22 = getelementptr inbounds nuw i8, ptr %6, i64 16
  store ptr %2, ptr %22, align 8, !tbaa !40
  %23 = load i8, ptr %2, align 1, !tbaa !27
  %24 = zext i8 %23 to i64
  store i64 %24, ptr %6, align 8, !tbaa !41
  switch i64 %3, label %66 [
    i64 7, label %25
    i64 6, label %31
    i64 5, label %38
    i64 4, label %45
    i64 3, label %52
    i64 2, label %59
  ]

25:                                               ; preds = %21
  %26 = getelementptr inbounds nuw i8, ptr %2, i64 6
  %27 = load i8, ptr %26, align 1, !tbaa !27
  %28 = zext i8 %27 to i64
  %29 = shl nuw nsw i64 %28, 48
  %30 = or disjoint i64 %29, %24
  br label %31

31:                                               ; preds = %25, %21
  %32 = phi i64 [ %30, %25 ], [ %24, %21 ]
  %33 = getelementptr inbounds nuw i8, ptr %2, i64 5
  %34 = load i8, ptr %33, align 1, !tbaa !27
  %35 = zext i8 %34 to i64
  %36 = shl nuw nsw i64 %35, 40
  %37 = add nuw nsw i64 %36, %32
  br label %38

38:                                               ; preds = %31, %21
  %39 = phi i64 [ %37, %31 ], [ %24, %21 ]
  %40 = getelementptr inbounds nuw i8, ptr %2, i64 4
  %41 = load i8, ptr %40, align 1, !tbaa !27
  %42 = zext i8 %41 to i64
  %43 = shl nuw nsw i64 %42, 32
  %44 = add nuw nsw i64 %43, %39
  br label %45

45:                                               ; preds = %38, %21
  %46 = phi i64 [ %44, %38 ], [ %24, %21 ]
  %47 = getelementptr inbounds nuw i8, ptr %2, i64 3
  %48 = load i8, ptr %47, align 1, !tbaa !27
  %49 = zext i8 %48 to i64
  %50 = shl nuw nsw i64 %49, 24
  %51 = add nuw nsw i64 %50, %46
  br label %52

52:                                               ; preds = %45, %21
  %53 = phi i64 [ %51, %45 ], [ %24, %21 ]
  %54 = getelementptr inbounds nuw i8, ptr %2, i64 2
  %55 = load i8, ptr %54, align 1, !tbaa !27
  %56 = zext i8 %55 to i64
  %57 = shl nuw nsw i64 %56, 16
  %58 = add nuw nsw i64 %57, %53
  br label %59

59:                                               ; preds = %52, %21
  %60 = phi i64 [ %58, %52 ], [ %24, %21 ]
  %61 = getelementptr inbounds nuw i8, ptr %2, i64 1
  %62 = load i8, ptr %61, align 1, !tbaa !27
  %63 = zext i8 %62 to i64
  %64 = shl nuw nsw i64 %63, 8
  %65 = add nuw nsw i64 %64, %60
  store i64 %65, ptr %6, align 8, !tbaa !41
  br label %66

66:                                               ; preds = %59, %21
  %67 = getelementptr i8, ptr %2, i64 %3
  %68 = getelementptr i8, ptr %67, i64 -1
  %69 = load i8, ptr %68, align 1, !tbaa !27
  %70 = icmp eq i8 %69, 0
  br i1 %70, label %BITv05_initDStream.exit.thread, label %BITv05_initDStream.exit.thread25

BITv05_initDStream.exit.thread25:                 ; preds = %66
  %71 = zext i8 %69 to i32
  %72 = tail call range(i32 0, 33) i32 @llvm.ctlz.i32(i32 %71, i1 true)
  %73 = getelementptr inbounds nuw i8, ptr %6, i64 8
  %74 = trunc nuw i64 %3 to i32
  %75 = shl nuw nsw i32 %74, 3
  %reass.sub = sub nsw i32 %72, %75
  %76 = add nsw i32 %reass.sub, 41
  store i32 %76, ptr %73, align 8, !tbaa !42
  br label %84

BITv05_initDStream.exit:                          ; preds = %16
  %77 = lshr i64 %.val.i, 56
  %78 = trunc nuw nsw i64 %77 to i32
  %79 = tail call range(i32 0, 33) i32 @llvm.ctlz.i32(i32 %78, i1 true)
  %80 = xor i32 %79, 31
  %81 = sub nuw nsw i32 8, %80
  %82 = getelementptr inbounds nuw i8, ptr %6, i64 8
  store i32 %81, ptr %82, align 8, !tbaa !42
  %83 = icmp ult i64 %3, -119
  br i1 %83, label %84, label %BITv05_initDStream.exit.thread

84:                                               ; preds = %BITv05_initDStream.exit.thread25, %BITv05_initDStream.exit
  call fastcc void @HUFv05_decodeStreamX2(ptr noundef %0, ptr noundef %6, ptr noundef nonnull %7, ptr noundef nonnull %10, i32 noundef %9)
  %85 = getelementptr inbounds nuw i8, ptr %6, i64 16
  %86 = load ptr, ptr %85, align 8, !tbaa !40
  %87 = load ptr, ptr %15, align 8, !tbaa !36
  %88 = icmp eq ptr %86, %87
  %89 = getelementptr inbounds nuw i8, ptr %6, i64 8
  %90 = load i32, ptr %89, align 8
  %.fr = freeze i32 %90
  %.not30 = icmp eq i32 %.fr, 64
  %or.cond = and i1 %88, %.not30
  %spec.select = select i1 %or.cond, i64 %1, i64 -20
  br label %BITv05_initDStream.exit.thread

BITv05_initDStream.exit.thread:                   ; preds = %11, %84, %66, %16, %5, %BITv05_initDStream.exit
  %.0 = phi i64 [ %3, %BITv05_initDStream.exit ], [ -70, %5 ], [ -1, %66 ], [ -1, %16 ], [ %spec.select, %84 ], [ -72, %11 ]
  call void @llvm.lifetime.end.p0(i64 32, ptr nonnull %6) #27
  ret i64 %.0
}